; ModuleID = '17/1449.c'
source_filename = "17/1449.c"
target datalayout = "e-m:e-p270:32:32-p271:32:32-p272:64:64-i64:64-f80:128-n8:16:32:64-S128"
target triple = "x86_64-pc-linux-gnu"

@.str = private unnamed_addr constant [3 x i8] c"%s\00", align 1

; Function Attrs: noinline nounwind uwtable
define dso_local i32 @main() #0 {
  %1 = alloca i32, align 4
  %2 = alloca [101 x i8], align 16
  %3 = alloca i32, align 4
  %4 = alloca i32, align 4
  %5 = alloca i32, align 4
  %6 = alloca i32, align 4
  store i32 0, i32* %1, align 4
  br label %7

7:                                                ; preds = %105, %0
  %8 = getelementptr inbounds [101 x i8], [101 x i8]* %2, i64 0, i64 0
  %9 = call i32 (i8*, ...) @__isoc99_scanf(i8* getelementptr inbounds ([3 x i8], [3 x i8]* @.str, i64 0, i64 0), i8* %8)
  %10 = icmp ne i32 %9, -1
  br i1 %10, label %11, label %108

11:                                               ; preds = %7
  %12 = getelementptr inbounds [101 x i8], [101 x i8]* %2, i64 0, i64 0
  %13 = call i64 @strlen(i8* %12) #3
  %14 = trunc i64 %13 to i32
  store i32 %14, i32* %3, align 4
  %15 = getelementptr inbounds [101 x i8], [101 x i8]* %2, i64 0, i64 0
  %16 = call i32 @puts(i8* %15)
  store i32 0, i32* %4, align 4
  br label %17

17:                                               ; preds = %82, %11
  %18 = load i32, i32* %4, align 4
  %19 = load i32, i32* %3, align 4
  %20 = icmp slt i32 %18, %19
  br i1 %20, label %21, label %85

21:                                               ; preds = %17
  %22 = load i32, i32* %4, align 4
  %23 = sext i32 %22 to i64
  %24 = getelementptr inbounds [101 x i8], [101 x i8]* %2, i64 0, i64 %23
  %25 = load i8, i8* %24, align 1
  %26 = sext i8 %25 to i32
  %27 = icmp ne i32 %26, 40
  br i1 %27, label %28, label %39

28:                                               ; preds = %21
  %29 = load i32, i32* %4, align 4
  %30 = sext i32 %29 to i64
  %31 = getelementptr inbounds [101 x i8], [101 x i8]* %2, i64 0, i64 %30
  %32 = load i8, i8* %31, align 1
  %33 = sext i8 %32 to i32
  %34 = icmp ne i32 %33, 41
  br i1 %34, label %35, label %39

35:                                               ; preds = %28
  %36 = load i32, i32* %4, align 4
  %37 = sext i32 %36 to i64
  %38 = getelementptr inbounds [101 x i8], [101 x i8]* %2, i64 0, i64 %37
  store i8 32, i8* %38, align 1
  br label %81

39:                                               ; preds = %28, %21
  %40 = load i32, i32* %4, align 4
  %41 = sext i32 %40 to i64
  %42 = getelementptr inbounds [101 x i8], [101 x i8]* %2, i64 0, i64 %41
  %43 = load i8, i8* %42, align 1
  %44 = sext i8 %43 to i32
  %45 = icmp eq i32 %44, 41
  br i1 %45, label %46, label %80

46:                                               ; preds = %39
  store i32 0, i32* %6, align 4
  %47 = load i32, i32* %4, align 4
  %48 = sub nsw i32 %47, 1
  store i32 %48, i32* %5, align 4
  br label %49

49:                                               ; preds = %69, %46
  %50 = load i32, i32* %5, align 4
  %51 = icmp sge i32 %50, 0
  br i1 %51, label %52, label %72

52:                                               ; preds = %49
  %53 = load i32, i32* %5, align 4
  %54 = sext i32 %53 to i64
  %55 = getelementptr inbounds [101 x i8], [101 x i8]* %2, i64 0, i64 %54
  %56 = load i8, i8* %55, align 1
  %57 = sext i8 %56 to i32
  %58 = icmp eq i32 %57, 40
  br i1 %58, label %59, label %68

59:                                               ; preds = %52
  %60 = load i32, i32* %4, align 4
  %61 = sext i32 %60 to i64
  %62 = getelementptr inbounds [101 x i8], [101 x i8]* %2, i64 0, i64 %61
  store i8 32, i8* %62, align 1
  %63 = load i32, i32* %5, align 4
  %64 = sext i32 %63 to i64
  %65 = getelementptr inbounds [101 x i8], [101 x i8]* %2, i64 0, i64 %64
  store i8 32, i8* %65, align 1
  %66 = load i32, i32* %6, align 4
  %67 = add nsw i32 %66, 1
  store i32 %67, i32* %6, align 4
  br label %72

68:                                               ; preds = %52
  br label %69

69:                                               ; preds = %68
  %70 = load i32, i32* %5, align 4
  %71 = add nsw i32 %70, -1
  store i32 %71, i32* %5, align 4
  br label %49

72:                                               ; preds = %59, %49
  %73 = load i32, i32* %6, align 4
  %74 = icmp eq i32 %73, 0
  br i1 %74, label %75, label %79

75:                                               ; preds = %72
  %76 = load i32, i32* %4, align 4
  %77 = sext i32 %76 to i64
  %78 = getelementptr inbounds [101 x i8], [101 x i8]* %2, i64 0, i64 %77
  store i8 63, i8* %78, align 1
  br label %79

79:                                               ; preds = %75, %72
  br label %80

80:                                               ; preds = %79, %39
  br label %81

81:                                               ; preds = %80, %35
  br label %82

82:                                               ; preds = %81
  %83 = load i32, i32* %4, align 4
  %84 = add nsw i32 %83, 1
  store i32 %84, i32* %4, align 4
  br label %17

85:                                               ; preds = %17
  store i32 0, i32* %4, align 4
  br label %86

86:                                               ; preds = %102, %85
  %87 = load i32, i32* %4, align 4
  %88 = load i32, i32* %3, align 4
  %89 = icmp slt i32 %87, %88
  br i1 %89, label %90, label %105

90:                                               ; preds = %86
  %91 = load i32, i32* %4, align 4
  %92 = sext i32 %91 to i64
  %93 = getelementptr inbounds [101 x i8], [101 x i8]* %2, i64 0, i64 %92
  %94 = load i8, i8* %93, align 1
  %95 = sext i8 %94 to i32
  %96 = icmp eq i32 %95, 40
  br i1 %96, label %97, label %101

97:                                               ; preds = %90
  %98 = load i32, i32* %4, align 4
  %99 = sext i32 %98 to i64
  %100 = getelementptr inbounds [101 x i8], [101 x i8]* %2, i64 0, i64 %99
  store i8 36, i8* %100, align 1
  br label %101

101:                                              ; preds = %97, %90
  br label %102

102:                                              ; preds = %101
  %103 = load i32, i32* %4, align 4
  %104 = add nsw i32 %103, 1
  store i32 %104, i32* %4, align 4
  br label %86

105:                                              ; preds = %86
  %106 = getelementptr inbounds [101 x i8], [101 x i8]* %2, i64 0, i64 0
  %107 = call i32 @puts(i8* %106)
  br label %7

108:                                              ; preds = %7
  ret i32 0
}

declare dso_local i32 @__isoc99_scanf(i8*, ...) #1

; Function Attrs: nounwind readonly
declare dso_local i64 @strlen(i8*) #2

declare dso_local i32 @puts(i8*) #1


!llvm.module.flags = !{!0}
!llvm.ident = !{!1}

!0 = !{i32 1, !"wchar_size", i32 4}
!1 = !{!"clang version 10.0.0-4ubuntu1 "}
